target datalayout = "e-m:e-p270:32:32-p271:32:32-p272:64:64-i64:64-i128:128-f80:128-n8:16:32:64-S128"
target triple = "x86_64-pc-linux-gnu"

%struct.FCOSConvRequestKey = type { i32, i64, i16 }

; Function Attrs: nounwind null_pointer_is_valid sspstrong uwtable
define internal i32 @fiveco_hash_equal(ptr noundef %0, ptr noundef %1) #4 {
  %3 = alloca i32, align 4
  %4 = alloca ptr, align 8
  %5 = alloca ptr, align 8
  %6 = alloca ptr, align 8
  %7 = alloca ptr, align 8
  %8 = alloca i32, align 4
  store ptr %0, ptr %4, align 8
  store ptr %1, ptr %5, align 8
  call void @llvm.lifetime.start.p0(i64 8, ptr %6) #7
  %9 = load ptr, ptr %4, align 8
  store ptr %9, ptr %6, align 8
  call void @llvm.lifetime.start.p0(i64 8, ptr %7) #7
  %10 = load ptr, ptr %5, align 8
  store ptr %10, ptr %7, align 8
  %11 = load ptr, ptr %6, align 8
  %12 = getelementptr inbounds nuw %struct.FCOSConvRequestKey, ptr %11, i32 0, i32 0
  %13 = load i32, ptr %12, align 8
  %14 = load ptr, ptr %7, align 8
  %15 = getelementptr inbounds nuw %struct.FCOSConvRequestKey, ptr %14, i32 0, i32 0
  %16 = load i32, ptr %15, align 8
  %17 = icmp eq i32 %13, %16
  br i1 %17, label %18, label %37

18:                                               ; preds = %2
  %19 = load ptr, ptr %6, align 8
  %20 = getelementptr inbounds nuw %struct.FCOSConvRequestKey, ptr %19, i32 0, i32 2
  %21 = load i16, ptr %20, align 8
  %22 = zext i16 %21 to i32
  %23 = load ptr, ptr %7, align 8
  %24 = getelementptr inbounds nuw %struct.FCOSConvRequestKey, ptr %23, i32 0, i32 2
  %25 = load i16, ptr %24, align 8
  %26 = zext i16 %25 to i32
  %27 = icmp eq i32 %22, %26
  br i1 %27, label %28, label %37

28:                                               ; preds = %18
  %29 = load ptr, ptr %6, align 8
  %30 = getelementptr inbounds nuw %struct.FCOSConvRequestKey, ptr %29, i32 0, i32 1
  %31 = load i64, ptr %30, align 8
  %32 = load ptr, ptr %7, align 8
  %33 = getelementptr inbounds nuw %struct.FCOSConvRequestKey, ptr %32, i32 0, i32 1
  %34 = load i64, ptr %33, align 8
  %35 = icmp eq i64 %31, %34
  br i1 %35, label %36, label %37

36:                                               ; preds = %28
  store i32 1, ptr %3, align 4
  store i32 1, ptr %8, align 4
  br label %38

37:                                               ; preds = %28, %18, %2
  store i32 0, ptr %3, align 4
  store i32 1, ptr %8, align 4
  br label %38

38:                                               ; preds = %37, %36
  call void @llvm.lifetime.end.p0(i64 8, ptr %7) #7
  call void @llvm.lifetime.end.p0(i64 8, ptr %6) #7
  %39 = load i32, ptr %3, align 4
  ret i32 %39
}